target datalayout = "e-m:e-p270:32:32-p271:32:32-p272:64:64-i64:64-i128:128-f80:128-n8:16:32:64-S128"
target triple = "x86_64-pc-linux-gnu"

%"class.google::protobuf::io::CodedOutputStream" = type { %"class.google::protobuf::io::EpsCopyOutputStream", ptr, i64 }
%"class.google::protobuf::io::EpsCopyOutputStream" = type <{ ptr, ptr, [32 x i8], ptr, i8, i8, i8, [5 x i8] }>

; Function Attrs: alwaysinline mustprogress nounwind uwtable
define linkonce_odr hidden noundef ptr @_ZN6google8protobuf2io19EpsCopyOutputStream12UnsafeVarintIjEEPhT_S4_(i32 noundef %0, ptr noundef %1) #13 comdat align 2 {
  %3 = alloca ptr, align 8
  %4 = alloca i32, align 4
  %5 = alloca ptr, align 8
  store i32 %0, ptr %4, align 4, !tbaa !8
  store ptr %1, ptr %5, align 8, !tbaa !78
  %6 = load i32, ptr %4, align 4, !tbaa !8
  %7 = trunc i32 %6 to i8
  %8 = load ptr, ptr %5, align 8, !tbaa !78
  %9 = getelementptr inbounds i8, ptr %8, i64 0
  store i8 %7, ptr %9, align 1, !tbaa !20
  %10 = load i32, ptr %4, align 4, !tbaa !8
  %11 = icmp ult i32 %10, 128
  br i1 %11, label %12, label %15

12:                                               ; preds = %2
  %13 = load ptr, ptr %5, align 8, !tbaa !78
  %14 = getelementptr inbounds i8, ptr %13, i64 1
  store ptr %14, ptr %3, align 8
  br label %55

15:                                               ; preds = %2
  %16 = load ptr, ptr %5, align 8, !tbaa !78
  %17 = getelementptr inbounds i8, ptr %16, i64 0
  %18 = load i8, ptr %17, align 1, !tbaa !20
  %19 = zext i8 %18 to i32
  %20 = or i32 %19, 128
  %21 = trunc i32 %20 to i8
  store i8 %21, ptr %17, align 1, !tbaa !20
  %22 = load i32, ptr %4, align 4, !tbaa !8
  %23 = lshr i32 %22, 7
  store i32 %23, ptr %4, align 4, !tbaa !8
  %24 = load i32, ptr %4, align 4, !tbaa !8
  %25 = trunc i32 %24 to i8
  %26 = load ptr, ptr %5, align 8, !tbaa !78
  %27 = getelementptr inbounds i8, ptr %26, i64 1
  store i8 %25, ptr %27, align 1, !tbaa !20
  %28 = load i32, ptr %4, align 4, !tbaa !8
  %29 = icmp ult i32 %28, 128
  br i1 %29, label %30, label %33

30:                                               ; preds = %15
  %31 = load ptr, ptr %5, align 8, !tbaa !78
  %32 = getelementptr inbounds i8, ptr %31, i64 2
  store ptr %32, ptr %3, align 8
  br label %55

33:                                               ; preds = %15
  %34 = load ptr, ptr %5, align 8, !tbaa !78
  %35 = getelementptr inbounds i8, ptr %34, i64 2
  store ptr %35, ptr %5, align 8, !tbaa !78
  br label %36

36:                                               ; preds = %50, %33
  %37 = load ptr, ptr %5, align 8, !tbaa !78
  %38 = getelementptr inbounds i8, ptr %37, i64 -1
  %39 = load i8, ptr %38, align 1, !tbaa !20
  %40 = zext i8 %39 to i32
  %41 = or i32 %40, 128
  %42 = trunc i32 %41 to i8
  store i8 %42, ptr %38, align 1, !tbaa !20
  %43 = load i32, ptr %4, align 4, !tbaa !8
  %44 = lshr i32 %43, 7
  store i32 %44, ptr %4, align 4, !tbaa !8
  %45 = load i32, ptr %4, align 4, !tbaa !8
  %46 = trunc i32 %45 to i8
  %47 = load ptr, ptr %5, align 8, !tbaa !78
  store i8 %46, ptr %47, align 1, !tbaa !20
  %48 = load ptr, ptr %5, align 8, !tbaa !78
  %49 = getelementptr inbounds nuw i8, ptr %48, i32 1
  store ptr %49, ptr %5, align 8, !tbaa !78
  br label %50

50:                                               ; preds = %36
  %51 = load i32, ptr %4, align 4, !tbaa !8
  %52 = icmp uge i32 %51, 128
  br i1 %52, label %36, label %53, !llvm.loop !111

53:                                               ; preds = %50
  %54 = load ptr, ptr %5, align 8, !tbaa !78
  store ptr %54, ptr %3, align 8
  br label %55

55:                                               ; preds = %53, %30, %12
  %56 = load ptr, ptr %3, align 8
  ret ptr %56
}

; Function Attrs: mustprogress nounwind uwtable
define linkonce_odr hidden void @_ZN6google8protobuf2io17CodedOutputStream6SetCurEPh(ptr noundef nonnull align 8 dereferenceable(80) %0, ptr noundef %1) #8 comdat align 2 {
  %3 = alloca ptr, align 8
  %4 = alloca ptr, align 8
  store ptr %0, ptr %3, align 8, !tbaa !37
  store ptr %1, ptr %4, align 8, !tbaa !78
  %5 = load ptr, ptr %3, align 8
  %6 = load ptr, ptr %4, align 8, !tbaa !78
  %7 = getelementptr inbounds nuw %"class.google::protobuf::io::CodedOutputStream", ptr %5, i32 0, i32 1
  store ptr %6, ptr %7, align 8, !tbaa !39
  ret void
}

; Function Attrs: inlinehint mustprogress uwtable
define linkonce_odr hidden noundef ptr @_ZN6google8protobuf2io17CodedOutputStream20WriteVarint32ToArrayEjPh(i32 noundef %0, ptr noundef %1) #7 comdat align 2 {
  %3 = alloca i32, align 4
  %4 = alloca ptr, align 8
  store i32 %0, ptr %3, align 4, !tbaa !8
  store ptr %1, ptr %4, align 8, !tbaa !78
  %5 = load i32, ptr %3, align 4, !tbaa !8
  %6 = load ptr, ptr %4, align 8, !tbaa !78
  %7 = call noundef ptr @_ZN6google8protobuf2io19EpsCopyOutputStream12UnsafeVarintIjEEPhT_S4_(i32 noundef %5, ptr noundef %6)
  ret ptr %7
}

; Function Attrs: mustprogress nounwind uwtable
define linkonce_odr hidden noundef ptr @_ZNK6google8protobuf2io17CodedOutputStream3CurEv(ptr noundef nonnull align 8 dereferenceable(80) %0) #8 comdat align 2 {
  %2 = alloca ptr, align 8
  store ptr %0, ptr %2, align 8, !tbaa !37
  %3 = load ptr, ptr %2, align 8
  %4 = getelementptr inbounds nuw %"class.google::protobuf::io::CodedOutputStream", ptr %3, i32 0, i32 1
  %5 = load ptr, ptr %4, align 8, !tbaa !39
  ret ptr %5
}

; Function Attrs: mustprogress uwtable
define linkonce_odr hidden noundef ptr @_ZN6google8protobuf2io19EpsCopyOutputStream11EnsureSpaceEPh(ptr noundef nonnull align 8 dereferenceable(59) %0, ptr noundef %1) #4 comdat align 2 {
  %3 = alloca ptr, align 8
  %4 = alloca ptr, align 8
  %5 = alloca ptr, align 8
  store ptr %0, ptr %4, align 8, !tbaa !108
  store ptr %1, ptr %5, align 8, !tbaa !78
  %6 = load ptr, ptr %4, align 8
  %7 = load ptr, ptr %5, align 8, !tbaa !78
  %8 = getelementptr inbounds nuw %"class.google::protobuf::io::EpsCopyOutputStream", ptr %6, i32 0, i32 0
  %9 = load ptr, ptr %8, align 8, !tbaa !110
  %10 = icmp uge ptr %7, %9
  %11 = zext i1 %10 to i64
  %12 = call i64 @llvm.expect.i64(i64 %11, i64 0)
  %13 = icmp ne i64 %12, 0
  br i1 %13, label %14, label %17

14:                                               ; preds = %2
  %15 = load ptr, ptr %5, align 8, !tbaa !78
  %16 = call noundef ptr @_ZN6google8protobuf2io19EpsCopyOutputStream19EnsureSpaceFallbackEPh(ptr noundef nonnull align 8 dereferenceable(59) %6, ptr noundef %15)
  store ptr %16, ptr %3, align 8
  br label %19

17:                                               ; preds = %2
  %18 = load ptr, ptr %5, align 8, !tbaa !78
  store ptr %18, ptr %3, align 8
  br label %19

19:                                               ; preds = %17, %14
  %20 = load ptr, ptr %3, align 8
  ret ptr %20
}

; Function Attrs: inlinehint mustprogress uwtable
define linkonce_odr hidden void @_ZN6google8protobuf2io17CodedOutputStream13WriteVarint32Ej(ptr noundef nonnull align 8 dereferenceable(80) %0, i32 noundef %1) #7 comdat align 2 {
  %3 = alloca ptr, align 8
  %4 = alloca i32, align 4
  store ptr %0, ptr %3, align 8, !tbaa !37
  store i32 %1, ptr %4, align 4, !tbaa !8
  %5 = load ptr, ptr %3, align 8
  %6 = getelementptr inbounds nuw %"class.google::protobuf::io::CodedOutputStream", ptr %5, i32 0, i32 0
  %7 = getelementptr inbounds nuw %"class.google::protobuf::io::CodedOutputStream", ptr %5, i32 0, i32 1
  %8 = load ptr, ptr %7, align 8, !tbaa !39
  %9 = call noundef ptr @_ZN6google8protobuf2io19EpsCopyOutputStream11EnsureSpaceEPh(ptr noundef nonnull align 8 dereferenceable(59) %6, ptr noundef %8)
  %10 = getelementptr inbounds nuw %"class.google::protobuf::io::CodedOutputStream", ptr %5, i32 0, i32 1
  store ptr %9, ptr %10, align 8, !tbaa !39
  %11 = load i32, ptr %4, align 4, !tbaa !8
  %12 = call noundef ptr @_ZNK6google8protobuf2io17CodedOutputStream3CurEv(ptr noundef nonnull align 8 dereferenceable(80) %5)
  %13 = call noundef ptr @_ZN6google8protobuf2io17CodedOutputStream20WriteVarint32ToArrayEjPh(i32 noundef %11, ptr noundef %12)
  call void @_ZN6google8protobuf2io17CodedOutputStream6SetCurEPh(ptr noundef nonnull align 8 dereferenceable(80) %5, ptr noundef %13)
  ret void
}

; Function Attrs: inlinehint mustprogress nounwind uwtable
define linkonce_odr hidden noundef i32 @_ZN6google8protobuf8internal14WireFormatLite14ZigZagEncode32Ei(i32 noundef %0) #5 comdat align 2 {
  %2 = alloca i32, align 4
  store i32 %0, ptr %2, align 4, !tbaa !8
  %3 = load i32, ptr %2, align 4, !tbaa !8
  %4 = shl i32 %3, 1
  %5 = load i32, ptr %2, align 4, !tbaa !8
  %6 = ashr i32 %5, 31
  %7 = xor i32 %4, %6
  ret i32 %7
}

; Function Attrs: inlinehint mustprogress uwtable
define linkonce_odr hidden void @_ZN6google8protobuf2io17CodedOutputStream8WriteTagEj(ptr noundef nonnull align 8 dereferenceable(80) %0, i32 noundef %1) #7 comdat align 2 {
  %3 = alloca ptr, align 8
  %4 = alloca i32, align 4
  store ptr %0, ptr %3, align 8, !tbaa !37
  store i32 %1, ptr %4, align 4, !tbaa !8
  %5 = load ptr, ptr %3, align 8
  %6 = load i32, ptr %4, align 4, !tbaa !8
  call void @_ZN6google8protobuf2io17CodedOutputStream13WriteVarint32Ej(ptr noundef nonnull align 8 dereferenceable(80) %5, i32 noundef %6)
  ret void
}

; Function Attrs: inlinehint mustprogress nounwind uwtable
define linkonce_odr hidden noundef i32 @_ZN6google8protobuf8internal14WireFormatLite7MakeTagEiNS2_8WireTypeE(i32 noundef %0, i32 noundef %1) #5 comdat align 2 {
  %3 = alloca i32, align 4
  %4 = alloca i32, align 4
  store i32 %0, ptr %3, align 4, !tbaa !8
  store i32 %1, ptr %4, align 4, !tbaa !31
  %5 = load i32, ptr %3, align 4, !tbaa !8
  %6 = shl i32 %5, 3
  %7 = load i32, ptr %4, align 4, !tbaa !31
  %8 = or i32 %6, %7
  ret i32 %8
}

; Function Attrs: alwaysinline mustprogress uwtable
define linkonce_odr hidden void @_ZN6google8protobuf8internal14WireFormatLite16WriteSInt32NoTagEiPNS0_2io17CodedOutputStreamE(i32 noundef %0, ptr noundef %1) #9 comdat align 2 {
  %3 = alloca i32, align 4
  %4 = alloca ptr, align 8
  store i32 %0, ptr %3, align 4, !tbaa !8
  store ptr %1, ptr %4, align 8, !tbaa !37
  %5 = load ptr, ptr %4, align 8, !tbaa !37
  %6 = load i32, ptr %3, align 4, !tbaa !8
  %7 = call noundef i32 @_ZN6google8protobuf8internal14WireFormatLite14ZigZagEncode32Ei(i32 noundef %6)
  call void @_ZN6google8protobuf2io17CodedOutputStream13WriteVarint32Ej(ptr noundef nonnull align 8 dereferenceable(80) %5, i32 noundef %7)
  ret void
}

; Function Attrs: alwaysinline mustprogress uwtable
define linkonce_odr hidden void @_ZN6google8protobuf8internal14WireFormatLite8WriteTagEiNS2_8WireTypeEPNS0_2io17CodedOutputStreamE(i32 noundef %0, i32 noundef %1, ptr noundef %2) #9 comdat align 2 {
  %4 = alloca i32, align 4
  %5 = alloca i32, align 4
  %6 = alloca ptr, align 8
  store i32 %0, ptr %4, align 4, !tbaa !8
  store i32 %1, ptr %5, align 4, !tbaa !31
  store ptr %2, ptr %6, align 8, !tbaa !37
  %7 = load ptr, ptr %6, align 8, !tbaa !37
  %8 = load i32, ptr %4, align 4, !tbaa !8
  %9 = load i32, ptr %5, align 4, !tbaa !31
  %10 = call noundef i32 @_ZN6google8protobuf8internal14WireFormatLite7MakeTagEiNS2_8WireTypeE(i32 noundef %8, i32 noundef %9)
  call void @_ZN6google8protobuf2io17CodedOutputStream8WriteTagEj(ptr noundef nonnull align 8 dereferenceable(80) %7, i32 noundef %10)
  ret void
}

; Function Attrs: mustprogress uwtable
define hidden void @_ZN6google8protobuf8internal14WireFormatLite11WriteSInt32EiiPNS0_2io17CodedOutputStreamE(i32 noundef %0, i32 noundef %1, ptr noundef %2) #4 align 2 {
  %4 = alloca i32, align 4
  %5 = alloca i32, align 4
  %6 = alloca ptr, align 8
  store i32 %0, ptr %4, align 4, !tbaa !8
  store i32 %1, ptr %5, align 4, !tbaa !8
  store ptr %2, ptr %6, align 8, !tbaa !37
  %7 = load i32, ptr %4, align 4, !tbaa !8
  %8 = load ptr, ptr %6, align 8, !tbaa !37
  call void @_ZN6google8protobuf8internal14WireFormatLite8WriteTagEiNS2_8WireTypeEPNS0_2io17CodedOutputStreamE(i32 noundef %7, i32 noundef 0, ptr noundef %8)
  %9 = load i32, ptr %5, align 4, !tbaa !8
  %10 = load ptr, ptr %6, align 8, !tbaa !37
  call void @_ZN6google8protobuf8internal14WireFormatLite16WriteSInt32NoTagEiPNS0_2io17CodedOutputStreamE(i32 noundef %9, ptr noundef %10)
  ret void
}