; Function Attrs: mustprogress uwtable
define hidden void @_ZN6google8protobuf8internal14WireFormatLite11WriteSInt32EiiPNS0_2io17CodedOutputStreamE(i32 noundef %0, i32 noundef %1, ptr noundef %2) local_unnamed_addr #3 align 2 {
  %4 = shl i32 %0, 3
  %5 = getelementptr inbounds nuw i8, ptr %2, i64 64
  %6 = load ptr, ptr %5, align 8, !tbaa !20
  %7 = load ptr, ptr %2, align 8, !tbaa !25
  %.not.i.i.i = icmp ult ptr %6, %7
  br i1 %.not.i.i.i, label %_ZN6google8protobuf2io19EpsCopyOutputStream11EnsureSpaceEPh.exit.i.i, label %8, !prof !15

8:                                                ; preds = %3
  %9 = tail call noundef ptr @_ZN6google8protobuf2io19EpsCopyOutputStream19EnsureSpaceFallbackEPh(ptr noundef nonnull align 8 dereferenceable(80) %2, ptr noundef %6)
  br label %_ZN6google8protobuf2io19EpsCopyOutputStream11EnsureSpaceEPh.exit.i.i

_ZN6google8protobuf2io19EpsCopyOutputStream11EnsureSpaceEPh.exit.i.i: ; preds = %8, %3
  %.0.i.i.i = phi ptr [ %9, %8 ], [ %6, %3 ]
  store ptr %.0.i.i.i, ptr %5, align 8, !tbaa !20
  %10 = trunc i32 %4 to i8
  store i8 %10, ptr %.0.i.i.i, align 1, !tbaa !16
  %11 = icmp ult i32 %4, 128
  br i1 %11, label %12, label %14

12:                                               ; preds = %_ZN6google8protobuf2io19EpsCopyOutputStream11EnsureSpaceEPh.exit.i.i
  %13 = getelementptr inbounds nuw i8, ptr %.0.i.i.i, i64 1
  br label %_ZN6google8protobuf2io17CodedOutputStream8WriteTagEj.exit

14:                                               ; preds = %_ZN6google8protobuf2io19EpsCopyOutputStream11EnsureSpaceEPh.exit.i.i
  %15 = or i8 %10, -128
  store i8 %15, ptr %.0.i.i.i, align 1, !tbaa !16
  %16 = lshr i32 %4, 7
  %17 = trunc i32 %16 to i8
  %18 = getelementptr inbounds nuw i8, ptr %.0.i.i.i, i64 1
  store i8 %17, ptr %18, align 1, !tbaa !16
  %19 = icmp ult i32 %4, 16384
  %20 = getelementptr inbounds nuw i8, ptr %.0.i.i.i, i64 2
  br i1 %19, label %_ZN6google8protobuf2io17CodedOutputStream8WriteTagEj.exit, label %.preheader.i.i.preheader

.preheader.i.i.preheader:                         ; preds = %14
  %scevgep8 = getelementptr i8, ptr %.0.i.i.i, i64 1
  %load_initial9 = load i8, ptr %scevgep8, align 1
  br label %.preheader.i.i

.preheader.i.i:                                   ; preds = %.preheader.i.i.preheader, %.preheader.i.i
  %store_forwarded10 = phi i8 [ %load_initial9, %.preheader.i.i.preheader ], [ %24, %.preheader.i.i ]
  %.018.i.i.i.i = phi i32 [ %16, %.preheader.i.i.preheader ], [ %23, %.preheader.i.i ]
  %.0.i.i.i.i = phi ptr [ %20, %.preheader.i.i.preheader ], [ %25, %.preheader.i.i ]
  %21 = getelementptr inbounds i8, ptr %.0.i.i.i.i, i64 -1
  %22 = or i8 %store_forwarded10, -128
  store i8 %22, ptr %21, align 1, !tbaa !16
  %23 = lshr i32 %.018.i.i.i.i, 7
  %24 = trunc i32 %23 to i8
  store i8 %24, ptr %.0.i.i.i.i, align 1, !tbaa !16
  %25 = getelementptr inbounds nuw i8, ptr %.0.i.i.i.i, i64 1
  %26 = icmp samesign ugt i32 %.018.i.i.i.i, 16383
  br i1 %26, label %.preheader.i.i, label %_ZN6google8protobuf2io17CodedOutputStream8WriteTagEj.exit, !llvm.loop !26

_ZN6google8protobuf2io17CodedOutputStream8WriteTagEj.exit: ; preds = %.preheader.i.i, %12, %14
  %.019.i.i.i.i = phi ptr [ %13, %12 ], [ %20, %14 ], [ %25, %.preheader.i.i ]
  store ptr %.019.i.i.i.i, ptr %5, align 8, !tbaa !20
  %27 = shl i32 %1, 1
  %28 = ashr i32 %1, 31
  %29 = xor i32 %27, %28
  %30 = load ptr, ptr %2, align 8, !tbaa !25
  %.not.i.i = icmp ult ptr %.019.i.i.i.i, %30
  br i1 %.not.i.i, label %_ZN6google8protobuf2io19EpsCopyOutputStream11EnsureSpaceEPh.exit.i, label %31, !prof !15

31:                                               ; preds = %_ZN6google8protobuf2io17CodedOutputStream8WriteTagEj.exit
  %32 = tail call noundef ptr @_ZN6google8protobuf2io19EpsCopyOutputStream19EnsureSpaceFallbackEPh(ptr noundef nonnull align 8 dereferenceable(80) %2, ptr noundef nonnull %.019.i.i.i.i)
  br label %_ZN6google8protobuf2io19EpsCopyOutputStream11EnsureSpaceEPh.exit.i

_ZN6google8protobuf2io19EpsCopyOutputStream11EnsureSpaceEPh.exit.i: ; preds = %31, %_ZN6google8protobuf2io17CodedOutputStream8WriteTagEj.exit
  %.0.i.i = phi ptr [ %32, %31 ], [ %.019.i.i.i.i, %_ZN6google8protobuf2io17CodedOutputStream8WriteTagEj.exit ]
  store ptr %.0.i.i, ptr %5, align 8, !tbaa !20
  %33 = trunc i32 %29 to i8
  store i8 %33, ptr %.0.i.i, align 1, !tbaa !16
  %34 = icmp ult i32 %29, 128
  br i1 %34, label %35, label %37

35:                                               ; preds = %_ZN6google8protobuf2io19EpsCopyOutputStream11EnsureSpaceEPh.exit.i
  %36 = getelementptr inbounds nuw i8, ptr %.0.i.i, i64 1
  br label %_ZN6google8protobuf2io17CodedOutputStream13WriteVarint32Ej.exit

37:                                               ; preds = %_ZN6google8protobuf2io19EpsCopyOutputStream11EnsureSpaceEPh.exit.i
  %38 = or i8 %33, -128
  store i8 %38, ptr %.0.i.i, align 1, !tbaa !16
  %39 = lshr i32 %29, 7
  %40 = trunc i32 %39 to i8
  %41 = getelementptr inbounds nuw i8, ptr %.0.i.i, i64 1
  store i8 %40, ptr %41, align 1, !tbaa !16
  %42 = icmp ult i32 %29, 16384
  %43 = getelementptr inbounds nuw i8, ptr %.0.i.i, i64 2
  br i1 %42, label %_ZN6google8protobuf2io17CodedOutputStream13WriteVarint32Ej.exit, label %.preheader.i.preheader

.preheader.i.preheader:                           ; preds = %37
  %scevgep = getelementptr i8, ptr %.0.i.i, i64 1
  %load_initial = load i8, ptr %scevgep, align 1
  br label %.preheader.i

.preheader.i:                                     ; preds = %.preheader.i.preheader, %.preheader.i
  %store_forwarded = phi i8 [ %load_initial, %.preheader.i.preheader ], [ %47, %.preheader.i ]
  %.018.i.i.i = phi i32 [ %39, %.preheader.i.preheader ], [ %46, %.preheader.i ]
  %.0.i.i.i3 = phi ptr [ %43, %.preheader.i.preheader ], [ %48, %.preheader.i ]
  %44 = getelementptr inbounds i8, ptr %.0.i.i.i3, i64 -1
  %45 = or i8 %store_forwarded, -128
  store i8 %45, ptr %44, align 1, !tbaa !16
  %46 = lshr i32 %.018.i.i.i, 7
  %47 = trunc i32 %46 to i8
  store i8 %47, ptr %.0.i.i.i3, align 1, !tbaa !16
  %48 = getelementptr inbounds nuw i8, ptr %.0.i.i.i3, i64 1
  %49 = icmp samesign ugt i32 %.018.i.i.i, 16383
  br i1 %49, label %.preheader.i, label %_ZN6google8protobuf2io17CodedOutputStream13WriteVarint32Ej.exit, !llvm.loop !26

_ZN6google8protobuf2io17CodedOutputStream13WriteVarint32Ej.exit: ; preds = %.preheader.i, %35, %37
  %.019.i.i.i = phi ptr [ %36, %35 ], [ %43, %37 ], [ %48, %.preheader.i ]
  store ptr %.019.i.i.i, ptr %5, align 8, !tbaa !20
  ret void
}